target datalayout = "e-m:e-p270:32:32-p271:32:32-p272:64:64-i64:64-i128:128-f80:128-n8:16:32:64-S128"
target triple = "x86_64-unknown-linux-gnu"

%"class.mbp::solve_plugin" = type { ptr, ptr, i32, ptr }
%class.obj_map.21 = type { %class.core_hashtable.22 }
%class.core_hashtable.22 = type <{ ptr, i32, i32, i32, [4 x i8] }>
%"class.mbp::bv_solve_plugin" = type { %"class.mbp::solve_plugin", %class.bv_util }
%class.bv_util = type { %class.bv_recognizers, ptr, ptr }
%class.bv_recognizers = type { i32 }
%class.symbol = type { ptr }
%class.ast_manager = type { %class.reslimit, %class.small_object_allocator, %class.family_manager, %class.parray_manager, %class.dependency_manager, %class.parray_manager.10, %class.ptr_vector.13, i32, i8, %class.ast_table, %class.obj_map, %class.id_gen, %class.id_gen, ptr, ptr, ptr, ptr, ptr, i32, i8, [3 x i8], %class.u_map, ptr, i8, i8, ptr, %class.symbol, %class.obj_map.21, ptr }
%class.reslimit = type { %"struct.std::atomic", i8, i64, i64, %class.svector, %class.ptr_vector }
%"struct.std::atomic" = type { %"struct.std::__atomic_base" }
%"struct.std::__atomic_base" = type { i32 }
%class.svector = type { %class.vector }
%class.vector = type { ptr }
%class.ptr_vector = type { %class.vector.0 }
%class.vector.0 = type { ptr }
%class.small_object_allocator = type { [32 x ptr], [32 x ptr], i64 }
%class.family_manager = type { i32, %class.symbol_table, %class.svector.4 }
%class.symbol_table = type { %class.core_hashtable, %class.vector.1, %class.svector.2 }
%class.core_hashtable = type <{ ptr, i32, i32, i32, [4 x i8] }>
%class.vector.1 = type { ptr }
%class.svector.2 = type { %class.vector.3 }
%class.vector.3 = type { ptr }
%class.svector.4 = type { %class.vector.5 }
%class.vector.5 = type { ptr }
%class.parray_manager = type { ptr, ptr, %class.ptr_vector.6, %class.ptr_vector.6 }
%class.ptr_vector.6 = type { %class.vector.7 }
%class.vector.7 = type { ptr }
%class.dependency_manager = type { ptr, ptr, %class.ptr_vector.8 }
%class.ptr_vector.8 = type { %class.vector.9 }
%class.vector.9 = type { ptr }
%class.parray_manager.10 = type { ptr, ptr, %class.ptr_vector.11, %class.ptr_vector.11 }
%class.ptr_vector.11 = type { %class.vector.12 }
%class.vector.12 = type { ptr }
%class.ptr_vector.13 = type { %class.vector.14 }
%class.vector.14 = type { ptr }
%class.ast_table = type { %class.chashtable }
%class.chashtable = type { ptr, i32, i32, i32, i32, i32, i32, i32, ptr, ptr, ptr }
%class.obj_map = type { %class.core_hashtable.15 }
%class.core_hashtable.15 = type <{ ptr, i32, i32, i32, [4 x i8] }>
%class.id_gen = type { i32, %class.svector.17 }
%class.svector.17 = type { %class.vector.18 }
%class.vector.18 = type { ptr }
%class.u_map = type { %class.map }
%class.map = type { %class.table2map }
%class.table2map = type { %class.core_hashtable.19 }
%class.core_hashtable.19 = type <{ ptr, i32, i32, i32, [4 x i8] }>

@_ZTVN3mbp12solve_pluginE = linkonce_odr hidden unnamed_addr constant { [5 x ptr] } { [5 x ptr] [ptr null, ptr @_ZTIN3mbp12solve_pluginE, ptr @__cxa_pure_virtual, ptr @_ZN3mbp12solve_pluginD2Ev, ptr @_ZN3mbp12solve_pluginD0Ev] }, comdat, align 8
@.str.4 = private unnamed_addr constant [3 x i8] c"bv\00", align 1
@_ZTVN3mbp15bv_solve_pluginE = linkonce_odr hidden unnamed_addr constant { [5 x ptr] } { [5 x ptr] [ptr null, ptr @_ZTIN3mbp15bv_solve_pluginE, ptr @_ZN3mbp15bv_solve_plugin5solveEP4exprb, ptr @_ZN3mbp15bv_solve_pluginD2Ev, ptr @_ZN3mbp15bv_solve_pluginD0Ev] }, comdat, align 8

; Function Attrs: mustprogress uwtable
define linkonce_odr hidden noundef i32 @_ZNK11ast_manager13get_family_idERK6symbol(ptr noundef nonnull align 8 dereferenceable(976) %this, ptr noundef nonnull align 8 dereferenceable(8) %s) #4 comdat align 2 {
entry:
  %this.addr = alloca ptr, align 8
  %s.addr = alloca ptr, align 8
  store ptr %this, ptr %this.addr, align 8
  store ptr %s, ptr %s.addr, align 8
  %this1 = load ptr, ptr %this.addr, align 8
  %m_family_manager = getelementptr inbounds %class.ast_manager, ptr %this1, i32 0, i32 2
  %0 = load ptr, ptr %s.addr, align 8
  %call = call noundef i32 @_ZNK14family_manager13get_family_idERK6symbol(ptr noundef nonnull align 8 dereferenceable(56) %m_family_manager, ptr noundef nonnull align 8 dereferenceable(8) %0)
  ret i32 %call
}

; Function Attrs: mustprogress nounwind uwtable
define linkonce_odr hidden void @_ZN3mbp12solve_pluginD2Ev(ptr noundef nonnull align 8 dereferenceable(32) %this) unnamed_addr #5 comdat align 2 {
entry:
  %this.addr = alloca ptr, align 8
  store ptr %this, ptr %this.addr, align 8
  ret void
}

; Function Attrs: mustprogress nounwind uwtable
define linkonce_odr hidden void @_ZN3mbp12solve_pluginC2ER11ast_manageriR16is_variable_proc(ptr noundef nonnull align 8 dereferenceable(32) %this, ptr noundef nonnull align 8 dereferenceable(976) %m, i32 noundef %fid, ptr noundef nonnull align 8 dereferenceable(8) %is_var) unnamed_addr #5 comdat align 2 {
entry:
  %this.addr = alloca ptr, align 8
  %m.addr = alloca ptr, align 8
  %fid.addr = alloca i32, align 4
  %is_var.addr = alloca ptr, align 8
  store ptr %this, ptr %this.addr, align 8
  store ptr %m, ptr %m.addr, align 8
  store i32 %fid, ptr %fid.addr, align 4
  store ptr %is_var, ptr %is_var.addr, align 8
  %this1 = load ptr, ptr %this.addr, align 8
  store ptr getelementptr inbounds ({ [5 x ptr] }, ptr @_ZTVN3mbp12solve_pluginE, i32 0, i32 0, i32 2), ptr %this1, align 8
  %m2 = getelementptr inbounds %"class.mbp::solve_plugin", ptr %this1, i32 0, i32 1
  %0 = load ptr, ptr %m.addr, align 8
  store ptr %0, ptr %m2, align 8
  %m_id = getelementptr inbounds %"class.mbp::solve_plugin", ptr %this1, i32 0, i32 2
  %1 = load i32, ptr %fid.addr, align 4
  store i32 %1, ptr %m_id, align 8
  %m_is_var = getelementptr inbounds %"class.mbp::solve_plugin", ptr %this1, i32 0, i32 3
  %2 = load ptr, ptr %is_var.addr, align 8
  store ptr %2, ptr %m_is_var, align 8
  ret void
}

; Function Attrs: mustprogress uwtable
define linkonce_odr hidden noundef i32 @_ZNK11ast_manager13get_family_idEPKc(ptr noundef nonnull align 8 dereferenceable(976) %this, ptr noundef %s) #4 comdat align 2 {
entry:
  %this.addr = alloca ptr, align 8
  %s.addr = alloca ptr, align 8
  %ref.tmp = alloca %class.symbol, align 8
  store ptr %this, ptr %this.addr, align 8
  store ptr %s, ptr %s.addr, align 8
  %this1 = load ptr, ptr %this.addr, align 8
  %0 = load ptr, ptr %s.addr, align 8
  call void @_ZN6symbolC1EPKc(ptr noundef nonnull align 8 dereferenceable(8) %ref.tmp, ptr noundef %0)
  %call = call noundef i32 @_ZNK11ast_manager13get_family_idERK6symbol(ptr noundef nonnull align 8 dereferenceable(976) %this1, ptr noundef nonnull align 8 dereferenceable(8) %ref.tmp)
  ret i32 %call
}

; Function Attrs: mustprogress uwtable
define linkonce_odr hidden void @_ZN3mbp15bv_solve_pluginC2ER11ast_managerR16is_variable_proc(ptr noundef nonnull align 8 dereferenceable(56) %this, ptr noundef nonnull align 8 dereferenceable(976) %m, ptr noundef nonnull align 8 dereferenceable(8) %is_var) unnamed_addr #4 comdat align 2 personality ptr @__gxx_personality_v0 {
entry:
  %this.addr = alloca ptr, align 8
  %m.addr = alloca ptr, align 8
  %is_var.addr = alloca ptr, align 8
  %exn.slot = alloca ptr, align 8
  %ehselector.slot = alloca i32, align 4
  store ptr %this, ptr %this.addr, align 8
  store ptr %m, ptr %m.addr, align 8
  store ptr %is_var, ptr %is_var.addr, align 8
  %this1 = load ptr, ptr %this.addr, align 8
  %0 = load ptr, ptr %m.addr, align 8
  %1 = load ptr, ptr %m.addr, align 8
  %call = call noundef i32 @_ZNK11ast_manager13get_family_idEPKc(ptr noundef nonnull align 8 dereferenceable(976) %1, ptr noundef @.str.4)
  %2 = load ptr, ptr %is_var.addr, align 8
  call void @_ZN3mbp12solve_pluginC2ER11ast_manageriR16is_variable_proc(ptr noundef nonnull align 8 dereferenceable(32) %this1, ptr noundef nonnull align 8 dereferenceable(976) %0, i32 noundef %call, ptr noundef nonnull align 8 dereferenceable(8) %2)
  store ptr getelementptr inbounds ({ [5 x ptr] }, ptr @_ZTVN3mbp15bv_solve_pluginE, i32 0, i32 0, i32 2), ptr %this1, align 8
  %m_bv = getelementptr inbounds %"class.mbp::bv_solve_plugin", ptr %this1, i32 0, i32 1
  %3 = load ptr, ptr %m.addr, align 8
  invoke void @_ZN7bv_utilC1ER11ast_manager(ptr noundef nonnull align 8 dereferenceable(24) %m_bv, ptr noundef nonnull align 8 dereferenceable(976) %3)
          to label %invoke.cont unwind label %lpad

invoke.cont:                                      ; preds = %entry
  ret void

lpad:                                             ; preds = %entry
  %4 = landingpad { ptr, i32 }
          cleanup
  %5 = extractvalue { ptr, i32 } %4, 0
  store ptr %5, ptr %exn.slot, align 8
  %6 = extractvalue { ptr, i32 } %4, 1
  store i32 %6, ptr %ehselector.slot, align 4
  call void @_ZN3mbp12solve_pluginD2Ev(ptr noundef nonnull align 8 dereferenceable(32) %this1) #3
  br label %eh.resume

eh.resume:                                        ; preds = %lpad
  %exn = load ptr, ptr %exn.slot, align 8
  %sel = load i32, ptr %ehselector.slot, align 4
  %lpad.val = insertvalue { ptr, i32 } poison, ptr %exn, 0
  %lpad.val2 = insertvalue { ptr, i32 } %lpad.val, i32 %sel, 1
  resume { ptr, i32 } %lpad.val2
}

; Function Attrs: mustprogress uwtable
define hidden noundef ptr @_ZN3mbp18mk_bv_solve_pluginER11ast_managerR16is_variable_proc(ptr noundef nonnull align 8 dereferenceable(976) %m, ptr noundef nonnull align 8 dereferenceable(8) %is_var) #4 {
entry:
  %m.addr = alloca ptr, align 8
  %is_var.addr = alloca ptr, align 8
  store ptr %m, ptr %m.addr, align 8
  store ptr %is_var, ptr %is_var.addr, align 8
  %call = call noalias noundef ptr @_ZN6memory8allocateEm(i64 noundef 56)
  %0 = load ptr, ptr %m.addr, align 8
  %1 = load ptr, ptr %is_var.addr, align 8
  call void @_ZN3mbp15bv_solve_pluginC2ER11ast_managerR16is_variable_proc(ptr noundef nonnull align 8 dereferenceable(56) %call, ptr noundef nonnull align 8 dereferenceable(976) %0, ptr noundef nonnull align 8 dereferenceable(8) %1)
  ret ptr %call
}