; Function Attrs: mustprogress uwtable
define hidden noundef ptr @_ZN3mbp18mk_bv_solve_pluginER11ast_managerR16is_variable_proc(ptr noundef nonnull align 8 dereferenceable(976) %m, ptr noundef nonnull align 8 dereferenceable(8) %is_var) local_unnamed_addr #3 personality ptr @__gxx_personality_v0 {
entry:
  %ref.tmp.i.i = alloca %class.symbol, align 8
  %call = tail call noalias noundef ptr @_ZN6memory8allocateEm(i64 noundef 56)
  call void @llvm.lifetime.start.p0(i64 8, ptr nonnull %ref.tmp.i.i)
  call void @_ZN6symbolC1EPKc(ptr noundef nonnull align 8 dereferenceable(8) %ref.tmp.i.i, ptr noundef nonnull @.str.4)
  %m_family_manager.i.i.i = getelementptr inbounds i8, ptr %m, i64 560
  %call.i.i.i = call noundef i32 @_ZNK14family_manager13get_family_idERK6symbol(ptr noundef nonnull align 8 dereferenceable(56) %m_family_manager.i.i.i, ptr noundef nonnull align 8 dereferenceable(8) %ref.tmp.i.i)
  call void @llvm.lifetime.end.p0(i64 8, ptr nonnull %ref.tmp.i.i)
  %m2.i.i = getelementptr inbounds i8, ptr %call, i64 8
  store ptr %m, ptr %m2.i.i, align 8
  %m_id.i.i = getelementptr inbounds i8, ptr %call, i64 16
  store i32 %call.i.i.i, ptr %m_id.i.i, align 8
  %m_is_var.i.i = getelementptr inbounds i8, ptr %call, i64 24
  store ptr %is_var, ptr %m_is_var.i.i, align 8
  store ptr getelementptr inbounds ({ [5 x ptr] }, ptr @_ZTVN3mbp15bv_solve_pluginE, i64 0, i32 0, i64 2), ptr %call, align 8
  %m_bv.i = getelementptr inbounds i8, ptr %call, i64 32
  call void @_ZN7bv_utilC1ER11ast_manager(ptr noundef nonnull align 8 dereferenceable(24) %m_bv.i, ptr noundef nonnull align 8 dereferenceable(976) %m)
  ret ptr %call
}